; Function Attrs: mustprogress nofree norecurse nosync nounwind willreturn memory(argmem: readwrite) uwtable
define i32 @stbvox_get_buffer_count(ptr noundef captures(none) %0) local_unnamed_addr #11 {
  %2 = getelementptr inbounds nuw i8, ptr %0, i64 388
  %3 = load i32, ptr %2, align 4, !tbaa !86
  %.not.i = icmp eq i32 %3, 0
  %.phi.trans.insert = getelementptr inbounds nuw i8, ptr %0, i64 824
  br i1 %.not.i, label %.stbvox_bring_up_to_date.exit_crit_edge, label %.critedge

.stbvox_bring_up_to_date.exit_crit_edge:          ; preds = %1
  %.pre = load i32, ptr %.phi.trans.insert, align 8, !tbaa !87
  br label %stbvox_bring_up_to_date.exit

.critedge:                                        ; preds = %1
  store i32 1, ptr %.phi.trans.insert, align 8, !tbaa !87
  %4 = getelementptr inbounds nuw i8, ptr %0, i64 776
  %5 = getelementptr inbounds nuw i8, ptr %0, i64 800
  store i32 32, ptr %4, align 4, !tbaa !14
  store i32 8, ptr %5, align 4, !tbaa !14
  %6 = getelementptr inbounds nuw i8, ptr %0, i64 788
  store i32 32, ptr %6, align 4, !tbaa !14
  %7 = getelementptr inbounds nuw i8, ptr %0, i64 812
  store i32 8, ptr %7, align 4, !tbaa !14
  store i32 0, ptr %2, align 4, !tbaa !86
  br label %stbvox_bring_up_to_date.exit

stbvox_bring_up_to_date.exit:                     ; preds = %.stbvox_bring_up_to_date.exit_crit_edge, %.critedge
  %8 = phi i32 [ %.pre, %.stbvox_bring_up_to_date.exit_crit_edge ], [ 1, %.critedge ]
  ret i32 %8
}